target datalayout = "e-m:e-p270:32:32-p271:32:32-p272:64:64-i64:64-i128:128-f80:128-n8:16:32:64-S128"
target triple = "x86_64-pc-linux-gnu"

%struct.DecoderPriv = type { %struct.Decoder, ptr, ptr, ptr, ptr, %struct.AVRational, %struct.AVRational, i32, i32, i32, i32, i32, i32, i64, i64, %struct.AVRational, i64, i32, [2 x ptr], ptr, ptr, i32, i32, ptr, [32 x i8], ptr, i32, ptr, i32, ptr, i32, %struct.anon }
%struct.Decoder = type { ptr, i32, ptr, i32, i64, i64, i64 }
%struct.AVRational = type { i32, i32 }
%struct.anon = type { ptr, ptr }
%struct.AVChannelLayout = type { i32, i32, %union.anon.1, ptr }
%union.anon.1 = type { i64 }
%struct.AVCodecContext = type { ptr, i32, i32, ptr, i32, i32, ptr, ptr, ptr, i64, i32, i32, ptr, i32, %struct.AVRational, %struct.AVRational, %struct.AVRational, i32, i32, i32, i32, i32, %struct.AVRational, i32, i32, i32, i32, i32, i32, i32, i32, i32, i32, i32, ptr, ptr, i32, float, float, float, float, float, float, float, float, float, i32, i32, i32, i32, i32, i32, i32, i32, i32, i32, i32, i32, ptr, ptr, ptr, i32, i32, i32, i32, i32, i32, i32, i32, i32, i32, %struct.AVChannelLayout, i32, i32, i32, i32, i32, i32, i32, i32, ptr, i32, i32, i32, float, float, i32, i32, i32, i32, i32, ptr, i64, i64, float, float, i32, i32, ptr, ptr, i32, i32, i32, i32, i32, ptr, ptr, ptr, ptr, i32, i32, [8 x i64], i32, i32, i32, i32, i32, i32, i32, ptr, ptr, i32, i32, i32, i32, i32, i32, i32, i32, i32, i32, ptr, ptr, i32, i32, ptr, ptr, ptr, ptr, i32, i32, i64, i32, i32, i64, ptr, i64, ptr, i32, ptr, i32 }
%struct.AVFrame = type { [8 x ptr], [8 x i32], ptr, i32, i32, i32, i32, i32, %struct.AVRational, i64, i64, %struct.AVRational, i32, ptr, i32, i32, [8 x ptr], ptr, i32, ptr, i32, i32, i32, i32, i32, i32, i32, i64, ptr, i32, ptr, ptr, i64, i64, i64, i64, ptr, %struct.AVChannelLayout, i64 }
%struct.AVFrameSideData = type { i32, ptr, i64, ptr, ptr }
%struct.anon.3 = type { i32, i64 }

; Function Attrs: nounwind uwtable
define internal i32 @get_buffer(ptr noundef %0, ptr noundef %1, i32 noundef %2) #0 {
  %4 = alloca ptr, align 8
  %5 = alloca ptr, align 8
  %6 = alloca i32, align 4
  %7 = alloca ptr, align 8
  %8 = alloca ptr, align 8
  %9 = alloca i32, align 4
  %10 = alloca i32, align 4
  %11 = alloca i32, align 4
  store ptr %0, ptr %4, align 8, !tbaa !226
  store ptr %1, ptr %5, align 8, !tbaa !57
  store i32 %2, ptr %6, align 4, !tbaa !14
  call void @llvm.lifetime.start.p0(i64 8, ptr %7) #11
  %12 = load ptr, ptr %4, align 8, !tbaa !226
  %13 = getelementptr inbounds nuw %struct.AVCodecContext, ptr %12, i32 0, i32 8
  %14 = load ptr, ptr %13, align 8, !tbaa !98
  store ptr %14, ptr %7, align 8, !tbaa !12
  %15 = load ptr, ptr %7, align 8, !tbaa !12
  %16 = getelementptr inbounds nuw %struct.DecoderPriv, ptr %15, i32 0, i32 30
  %17 = load i32, ptr %16, align 8, !tbaa !297
  %18 = icmp ne i32 %17, 0
  br i1 %18, label %19, label %68

19:                                               ; preds = %3
  call void @llvm.lifetime.start.p0(i64 8, ptr %8) #11
  %20 = load ptr, ptr %5, align 8, !tbaa !57
  %21 = call ptr @av_frame_get_side_data(ptr noundef %20, i32 noundef 29)
  store ptr %21, ptr %8, align 8, !tbaa !298
  call void @llvm.lifetime.start.p0(i64 4, ptr %9) #11
  %22 = load ptr, ptr %8, align 8, !tbaa !298
  %23 = icmp ne ptr %22, null
  br i1 %23, label %24, label %29

24:                                               ; preds = %19
  %25 = load ptr, ptr %8, align 8, !tbaa !298
  %26 = getelementptr inbounds nuw %struct.AVFrameSideData, ptr %25, i32 0, i32 1
  %27 = load ptr, ptr %26, align 8, !tbaa !300
  %28 = load i32, ptr %27, align 4, !tbaa !14
  br label %30

29:                                               ; preds = %19
  br label %30

30:                                               ; preds = %29, %24
  %31 = phi i32 [ %28, %24 ], [ 0, %29 ]
  store i32 %31, ptr %9, align 4, !tbaa !14
  call void @llvm.lifetime.start.p0(i64 4, ptr %10) #11
  store i32 0, ptr %10, align 4, !tbaa !14
  br label %32

32:                                               ; preds = %63, %30
  %33 = load i32, ptr %10, align 4, !tbaa !14
  %34 = load ptr, ptr %7, align 8, !tbaa !12
  %35 = getelementptr inbounds nuw %struct.DecoderPriv, ptr %34, i32 0, i32 30
  %36 = load i32, ptr %35, align 8, !tbaa !297
  %37 = icmp slt i32 %33, %36
  br i1 %37, label %39, label %38

38:                                               ; preds = %32
  store i32 2, ptr %11, align 4
  br label %66

39:                                               ; preds = %32
  %40 = load ptr, ptr %7, align 8, !tbaa !12
  %41 = getelementptr inbounds nuw %struct.DecoderPriv, ptr %40, i32 0, i32 29
  %42 = load ptr, ptr %41, align 8, !tbaa !302
  %43 = load i32, ptr %10, align 4, !tbaa !14
  %44 = sext i32 %43 to i64
  %45 = getelementptr inbounds %struct.anon.3, ptr %42, i64 %44
  %46 = getelementptr inbounds nuw %struct.anon.3, ptr %45, i32 0, i32 0
  %47 = load i32, ptr %46, align 8, !tbaa !303
  %48 = load i32, ptr %9, align 4, !tbaa !14
  %49 = icmp eq i32 %47, %48
  br i1 %49, label %50, label %62

50:                                               ; preds = %39
  %51 = load ptr, ptr %7, align 8, !tbaa !12
  %52 = getelementptr inbounds nuw %struct.DecoderPriv, ptr %51, i32 0, i32 29
  %53 = load ptr, ptr %52, align 8, !tbaa !302
  %54 = load i32, ptr %10, align 4, !tbaa !14
  %55 = sext i32 %54 to i64
  %56 = getelementptr inbounds %struct.anon.3, ptr %53, i64 %55
  %57 = getelementptr inbounds nuw %struct.anon.3, ptr %56, i32 0, i32 1
  %58 = load i64, ptr %57, align 8, !tbaa !305
  %59 = inttoptr i64 %58 to ptr
  %60 = load ptr, ptr %5, align 8, !tbaa !57
  %61 = getelementptr inbounds nuw %struct.AVFrame, ptr %60, i32 0, i32 13
  store ptr %59, ptr %61, align 8, !tbaa !203
  store i32 2, ptr %11, align 4
  br label %66

62:                                               ; preds = %39
  br label %63

63:                                               ; preds = %62
  %64 = load i32, ptr %10, align 4, !tbaa !14
  %65 = add nsw i32 %64, 1
  store i32 %65, ptr %10, align 4, !tbaa !14
  br label %32, !llvm.loop !306

66:                                               ; preds = %50, %38
  call void @llvm.lifetime.end.p0(i64 4, ptr %10) #11
  br label %67

67:                                               ; preds = %66
  call void @llvm.lifetime.end.p0(i64 4, ptr %9) #11
  call void @llvm.lifetime.end.p0(i64 8, ptr %8) #11
  br label %68

68:                                               ; preds = %67, %3
  %69 = load ptr, ptr %4, align 8, !tbaa !226
  %70 = load ptr, ptr %5, align 8, !tbaa !57
  %71 = load i32, ptr %6, align 4, !tbaa !14
  %72 = call i32 @avcodec_default_get_buffer2(ptr noundef %69, ptr noundef %70, i32 noundef %71)
  store i32 1, ptr %11, align 4
  call void @llvm.lifetime.end.p0(i64 8, ptr %7) #11
  ret i32 %72
}