; Function Attrs: nounwind uwtable
define internal i32 @get_buffer(ptr noundef %0, ptr noundef %1, i32 noundef %2) #0 {
  %4 = getelementptr inbounds nuw i8, ptr %0, i64 48
  %5 = load ptr, ptr %4, align 8, !tbaa !74
  %6 = getelementptr inbounds nuw i8, ptr %5, i64 288
  %7 = load i32, ptr %6, align 8, !tbaa !267
  %.not = icmp eq i32 %7, 0
  br i1 %.not, label %.loopexit, label %8

8:                                                ; preds = %3
  %9 = tail call ptr @av_frame_get_side_data(ptr noundef %1, i32 noundef 29) #13
  %.not17 = icmp eq ptr %9, null
  br i1 %.not17, label %14, label %10

10:                                               ; preds = %8
  %11 = getelementptr inbounds nuw i8, ptr %9, i64 8
  %12 = load ptr, ptr %11, align 8, !tbaa !282
  %13 = load i32, ptr %12, align 4, !tbaa !27
  br label %14

14:                                               ; preds = %8, %10
  %15 = phi i32 [ %13, %10 ], [ 0, %8 ]
  %16 = load i32, ptr %6, align 8, !tbaa !267
  %17 = icmp sgt i32 %16, 0
  br i1 %17, label %.lr.ph, label %.loopexit

.lr.ph:                                           ; preds = %14
  %18 = getelementptr inbounds nuw i8, ptr %5, i64 280
  %19 = load ptr, ptr %18, align 8, !tbaa !268
  %wide.trip.count = zext nneg i32 %16 to i64
  br label %21

20:                                               ; preds = %21
  %indvars.iv.next = add nuw nsw i64 %indvars.iv, 1
  %exitcond.not = icmp eq i64 %indvars.iv.next, %wide.trip.count
  br i1 %exitcond.not, label %.loopexit, label %21, !llvm.loop !284

21:                                               ; preds = %.lr.ph, %20
  %indvars.iv = phi i64 [ 0, %.lr.ph ], [ %indvars.iv.next, %20 ]
  %22 = getelementptr inbounds nuw %struct.anon.3, ptr %19, i64 %indvars.iv
  %23 = load i32, ptr %22, align 8, !tbaa !269
  %24 = icmp eq i32 %23, %15
  br i1 %24, label %25, label %20

25:                                               ; preds = %21
  %26 = getelementptr inbounds nuw i8, ptr %22, i64 8
  %27 = load i64, ptr %26, align 8, !tbaa !272
  %28 = inttoptr i64 %27 to ptr
  %29 = getelementptr inbounds nuw i8, ptr %1, i64 168
  store ptr %28, ptr %29, align 8, !tbaa !202
  br label %.loopexit

.loopexit:                                        ; preds = %20, %14, %25, %3
  %30 = tail call i32 @avcodec_default_get_buffer2(ptr noundef %0, ptr noundef %1, i32 noundef %2) #13
  ret i32 %30
}